target datalayout = "e-m:e-p270:32:32-p271:32:32-p272:64:64-i64:64-i128:128-f80:128-n8:16:32:64-S128"
target triple = "x86_64-pc-linux-gnu"

%struct.pmix_list_t = type { %struct.pmix_object_t, %struct.pmix_list_item_t, i64 }
%struct.pmix_object_t = type { %union.pthread_mutex_t, ptr, i32, %struct.pmix_tma }
%union.pthread_mutex_t = type { %struct.__pthread_mutex_s }
%struct.__pthread_mutex_s = type { i32, i32, i32, i32, i32, i16, i16, %struct.__pthread_internal_list }
%struct.__pthread_internal_list = type { ptr, ptr }
%struct.pmix_tma = type { ptr, ptr, ptr, ptr, ptr, ptr, ptr, ptr }
%struct.pmix_list_item_t = type { %struct.pmix_object_t, ptr, ptr, i32 }
%struct.timeval = type { i64, i64 }
%struct.pmix_globals_t = type { i32, %struct.pmix_proc, %struct.pmix_value, %struct.pmix_value, ptr, i32, i32, ptr, i32, i32, i32, i32, i32, ptr, ptr, i32, %struct.pmix_events_t, i8, i8, %struct.timeval, %struct.pmix_list_t, %struct.pmix_pointer_array_t, i32, i32, %struct.pmix_hotel_t, i8, %struct.pmix_list_t, i8, i8, i8, i64, %struct.pmix_list_t, %struct.pmix_topology_t, %struct.pmix_cpuset_t, i8, i8, %struct.pmix_iof_flags_t, %struct.pmix_keyindex_t }
%struct.pmix_proc = type { [256 x i8], i32 }
%struct.pmix_value = type { i16, %union.anon.7 }
%union.anon.7 = type { %struct.pmix_envar_t }
%struct.pmix_envar_t = type { ptr, ptr, i8 }
%struct.pmix_events_t = type { %struct.pmix_object_t, i64, ptr, ptr, %struct.pmix_list_t, %struct.pmix_list_t, %struct.pmix_list_t, %struct.pmix_list_t }
%struct.pmix_pointer_array_t = type { %struct.pmix_object_t, i32, i32, i32, i32, i32, ptr, ptr }
%struct.pmix_hotel_t = type { %struct.pmix_object_t, i32, ptr, %struct.timeval, ptr, ptr, ptr, ptr, i32 }
%struct.pmix_topology_t = type { ptr, ptr }
%struct.pmix_cpuset_t = type { ptr, ptr }
%struct.pmix_iof_flags_t = type { i8, i8, i8, i8, i8, i8, i8, ptr, ptr, i8, i8, i8, i8, i8, i8 }
%struct.pmix_keyindex_t = type { %struct.pmix_object_t, ptr, i32 }
%struct.pmix_progress_tracker_t = type { %struct.pmix_list_item_t, i32, ptr, ptr, i8, %struct.event, i8, %struct.pmix_thread_t }
%struct.event = type { %struct.event_callback, %union.anon.0, i32, ptr, %union.anon.2, i16, i16, %struct.timeval }
%struct.event_callback = type { %struct.anon, i16, i8, i8, %union.anon, ptr }
%struct.anon = type { ptr, ptr }
%union.anon = type { ptr }
%union.anon.0 = type { %struct.anon.1 }
%struct.anon.1 = type { ptr, ptr }
%union.anon.2 = type { %struct.anon.3 }
%struct.anon.3 = type { %struct.anon.4, %struct.timeval }
%struct.anon.4 = type { ptr, ptr }
%struct.pmix_thread_t = type { %struct.pmix_object_t, ptr, ptr, i64 }

@inited = internal global i8 0, align 1
@tracking = internal global %struct.pmix_list_t zeroinitializer, align 8
@shared_thread_name = internal global ptr @.str.2, align 8
@pmix_globals = external global %struct.pmix_globals_t, align 8

; Function Attrs: nounwind uwtable
define internal void @stop_progress_engine(ptr noundef %0) #0 {
  %2 = alloca ptr, align 8
  store ptr %0, ptr %2, align 8, !tbaa !3
  %3 = load ptr, ptr %2, align 8, !tbaa !3
  %4 = getelementptr inbounds nuw %struct.pmix_progress_tracker_t, ptr %3, i32 0, i32 4
  store volatile i8 0, ptr %4, align 8, !tbaa !84
  %5 = load ptr, ptr %2, align 8, !tbaa !3
  %6 = getelementptr inbounds nuw %struct.pmix_progress_tracker_t, ptr %5, i32 0, i32 3
  %7 = load ptr, ptr %6, align 8, !tbaa !7
  %8 = call i32 @event_base_loopexit(ptr noundef %7, ptr noundef null)
  %9 = load ptr, ptr %2, align 8, !tbaa !3
  %10 = getelementptr inbounds nuw %struct.pmix_progress_tracker_t, ptr %9, i32 0, i32 7
  %11 = call i32 @pmix_thread_join(ptr noundef %10, ptr noundef null)
  ret void
}

; Function Attrs: nounwind uwtable
define i32 @pmix_progress_thread_pause(ptr noundef %0) #0 {
  %2 = alloca i32, align 4
  %3 = alloca ptr, align 8
  %4 = alloca ptr, align 8
  %5 = alloca i32, align 4
  store ptr %0, ptr %3, align 8, !tbaa !27
  call void @llvm.lifetime.start.p0(i64 8, ptr %4) #12
  %6 = load i8, ptr @inited, align 1, !tbaa !28, !range !29, !noundef !30
  %7 = trunc i8 %6 to i1
  br i1 %7, label %9, label %8

8:                                                ; preds = %1
  store i32 -46, ptr %2, align 4
  store i32 1, ptr %5, align 4
  br label %49

9:                                                ; preds = %1
  %10 = load ptr, ptr %3, align 8, !tbaa !27
  %11 = icmp eq ptr null, %10
  br i1 %11, label %17, label %12

12:                                               ; preds = %9
  %13 = load ptr, ptr %3, align 8, !tbaa !27
  %14 = load ptr, ptr @shared_thread_name, align 8, !tbaa !27
  %15 = call i32 @strcmp(ptr noundef %13, ptr noundef %14) #13
  %16 = icmp eq i32 0, %15
  br i1 %16, label %17, label %23

17:                                               ; preds = %12, %9
  %18 = load i8, ptr getelementptr inbounds nuw (%struct.pmix_globals_t, ptr @pmix_globals, i32 0, i32 35), align 1, !tbaa !70, !range !29, !noundef !30
  %19 = trunc i8 %18 to i1
  br i1 %19, label %20, label %21

20:                                               ; preds = %17
  store i32 0, ptr %2, align 4
  store i32 1, ptr %5, align 4
  br label %49

21:                                               ; preds = %17
  %22 = load ptr, ptr @shared_thread_name, align 8, !tbaa !27
  store ptr %22, ptr %3, align 8, !tbaa !27
  br label %23

23:                                               ; preds = %21, %12
  %24 = load ptr, ptr getelementptr inbounds nuw (%struct.pmix_list_item_t, ptr getelementptr inbounds nuw (%struct.pmix_list_t, ptr @tracking, i32 0, i32 1), i32 0, i32 1), align 8, !tbaa !36
  store ptr %24, ptr %4, align 8, !tbaa !3
  br label %25

25:                                               ; preds = %44, %23
  %26 = load ptr, ptr %4, align 8, !tbaa !3
  %27 = icmp ne ptr %26, getelementptr inbounds nuw (%struct.pmix_list_t, ptr @tracking, i32 0, i32 1)
  br i1 %27, label %28, label %48

28:                                               ; preds = %25
  %29 = load ptr, ptr %3, align 8, !tbaa !27
  %30 = load ptr, ptr %4, align 8, !tbaa !3
  %31 = getelementptr inbounds nuw %struct.pmix_progress_tracker_t, ptr %30, i32 0, i32 2
  %32 = load ptr, ptr %31, align 8, !tbaa !38
  %33 = call i32 @strcmp(ptr noundef %29, ptr noundef %32) #13
  %34 = icmp eq i32 0, %33
  br i1 %34, label %35, label %43

35:                                               ; preds = %28
  %36 = load ptr, ptr %4, align 8, !tbaa !3
  %37 = getelementptr inbounds nuw %struct.pmix_progress_tracker_t, ptr %36, i32 0, i32 4
  %38 = load volatile i8, ptr %37, align 8, !tbaa !84, !range !29, !noundef !30
  %39 = trunc i8 %38 to i1
  br i1 %39, label %40, label %42

40:                                               ; preds = %35
  %41 = load ptr, ptr %4, align 8, !tbaa !3
  call void @stop_progress_engine(ptr noundef %41)
  br label %42

42:                                               ; preds = %40, %35
  store i32 0, ptr %2, align 4
  store i32 1, ptr %5, align 4
  br label %49

43:                                               ; preds = %28
  br label %44

44:                                               ; preds = %43
  %45 = load ptr, ptr %4, align 8, !tbaa !3
  %46 = getelementptr inbounds nuw %struct.pmix_list_item_t, ptr %45, i32 0, i32 1
  %47 = load ptr, ptr %46, align 8, !tbaa !40
  store ptr %47, ptr %4, align 8, !tbaa !3
  br label %25, !llvm.loop !96

48:                                               ; preds = %25
  store i32 -46, ptr %2, align 4
  store i32 1, ptr %5, align 4
  br label %49

49:                                               ; preds = %48, %42, %20, %8
  call void @llvm.lifetime.end.p0(i64 8, ptr %4) #12
  %50 = load i32, ptr %2, align 4
  ret i32 %50
}