; Function Attrs: nounwind uwtable
define range(i32 -46, 1) i32 @pmix_progress_thread_pause(ptr noundef readonly captures(address_is_null) %0) local_unnamed_addr #0 {
  %.b11 = load i1, ptr @inited, align 1
  br i1 %.b11, label %2, label %.loopexit

2:                                                ; preds = %1
  %3 = icmp eq ptr %0, null
  br i1 %3, label %7, label %4

4:                                                ; preds = %2
  %5 = tail call i32 @strcmp(ptr noundef nonnull dereferenceable(1) %0, ptr noundef nonnull dereferenceable(32) @.str.2) #15
  %6 = icmp eq i32 %5, 0
  br i1 %6, label %7, label %10

7:                                                ; preds = %4, %2
  %8 = load i8, ptr getelementptr inbounds nuw (i8, ptr @pmix_globals, i64 2889), align 1, !tbaa !47, !range !61, !noundef !62
  %9 = trunc nuw i8 %8 to i1
  br i1 %9, label %.loopexit, label %10

10:                                               ; preds = %7, %4
  %.08 = phi ptr [ %0, %4 ], [ @.str.2, %7 ]
  %.013 = load ptr, ptr getelementptr inbounds nuw (i8, ptr @tracking, i64 240), align 8, !tbaa !35
  %.not14 = icmp eq ptr %.013, getelementptr inbounds nuw (i8, ptr @tracking, i64 120)
  br i1 %.not14, label %.loopexit, label %.lr.ph

.lr.ph:                                           ; preds = %10, %25
  %.015 = phi ptr [ %.0, %25 ], [ %.013, %10 ]
  %11 = getelementptr inbounds nuw i8, ptr %.015, i64 152
  %12 = load ptr, ptr %11, align 8, !tbaa !36
  %13 = tail call i32 @strcmp(ptr noundef nonnull dereferenceable(1) %.08, ptr noundef nonnull dereferenceable(1) %12) #15
  %14 = icmp eq i32 %13, 0
  br i1 %14, label %15, label %25

15:                                               ; preds = %.lr.ph
  %16 = getelementptr inbounds nuw i8, ptr %.015, i64 168
  %17 = load volatile i8, ptr %16, align 8, !tbaa !63, !range !61, !noundef !62
  %18 = trunc nuw i8 %17 to i1
  br i1 %18, label %19, label %.loopexit

19:                                               ; preds = %15
  store volatile i8 0, ptr %16, align 8, !tbaa !63
  %20 = getelementptr inbounds nuw i8, ptr %.015, i64 160
  %21 = load ptr, ptr %20, align 8, !tbaa !7
  %22 = tail call i32 @event_base_loopexit(ptr noundef %21, ptr noundef null) #14
  %23 = getelementptr inbounds nuw i8, ptr %.015, i64 312
  %24 = tail call i32 @pmix_thread_join(ptr noundef nonnull %23, ptr noundef null) #14
  br label %.loopexit

25:                                               ; preds = %.lr.ph
  %26 = getelementptr inbounds nuw i8, ptr %.015, i64 120
  %.0 = load ptr, ptr %26, align 8, !tbaa !35
  %.not = icmp eq ptr %.0, getelementptr inbounds nuw (i8, ptr @tracking, i64 120)
  br i1 %.not, label %.loopexit, label %.lr.ph, !llvm.loop !75

.loopexit:                                        ; preds = %25, %10, %15, %19, %7, %1
  %.09 = phi i32 [ -46, %1 ], [ 0, %7 ], [ 0, %19 ], [ 0, %15 ], [ -46, %10 ], [ -46, %25 ]
  ret i32 %.09
}